target datalayout = "e-m:e-p270:32:32-p271:32:32-p272:64:64-i64:64-i128:128-f80:128-n8:16:32:64-S128"
target triple = "x86_64-pc-linux-gnu"

%struct.Nf_Cfg_t_ = type { i32 }
%struct.Vec_Int_t_ = type { i32, i32, ptr }
%struct.Nf_Man_t_ = type { ptr, ptr, ptr, ptr, ptr, ptr, i32, ptr, %struct.Vec_Ptr_t_, %struct.Vec_Int_t_, %struct.Vec_Int_t_, %struct.Vec_Flt_t_, %struct.Vec_Int_t_, %struct.Vec_Flt_t_, %struct.Vec_Int_t_, %struct.Vec_Int_t_, i32, i32, i32, i32, i32, i64, float, i64, [6 x double], i32 }
%struct.Vec_Ptr_t_ = type { i32, i32, ptr }
%struct.Vec_Flt_t_ = type { i32, i32, ptr }
%struct.Gia_Man_t_ = type { ptr, ptr, i32, i32, i32, i32, ptr, ptr, i32, i32, i32, ptr, ptr, %struct.Vec_Int_t_, %struct.Vec_Int_t_, i32, i32, i32, %struct.Vec_Int_t_, ptr, ptr, ptr, i32, i32, i32, i32, ptr, ptr, ptr, ptr, ptr, i32, i32, ptr, i32, ptr, ptr, ptr, ptr, ptr, ptr, ptr, ptr, ptr, ptr, ptr, ptr, ptr, ptr, ptr, ptr, ptr, ptr, %struct.Vec_Int_t_, %struct.Vec_Int_t_, ptr, ptr, ptr, ptr, ptr, ptr, ptr, ptr, ptr, ptr, ptr, ptr, ptr, ptr, ptr, ptr, ptr, ptr, ptr, ptr, ptr, i32, float, float, ptr, ptr, i32, ptr, ptr, ptr, ptr, ptr, ptr, ptr, ptr, ptr, ptr, ptr, ptr, ptr, ptr, ptr, i64, i64, ptr, ptr, i32, i32, i32, i32, i32, i32, i32, i32, i32, i32, i32, i32, ptr, ptr, ptr, ptr, ptr, ptr, ptr, ptr, i32, i32, i32, ptr, i32, i32, ptr, ptr, ptr, ptr, ptr, ptr, i32, i32, ptr, %struct.Vec_Int_t_, %struct.Vec_Int_t_, %struct.Vec_Int_t_, ptr, ptr, ptr, i32, i32, i32, i32, ptr, ptr, ptr, ptr, ptr }
%struct.Jf_Par_t_ = type { i32, i32, i32, i32, i32, i32, i32, i32, i32, i32, i32, i32, i32, i32, i32, i32, i32, i32, i32, i32, i32, i32, i32, i32, i32, i32, i32, i32, i32, i32, i32, i32, i32, i32, i32, i32, i32, i32, i32, i32, i64, i64, i64, i64, i64, i64, i64, i64, i32, float, float, float, float, ptr, ptr }
%struct.Nf_Obj_t_ = type { [2 x [2 x %struct.Nf_Mat_t_]] }
%struct.Nf_Mat_t_ = type { i32, %struct.Nf_Cfg_t_, i32, float }
%struct.Gia_Obj_t_ = type <{ i64, i32 }>

; Function Attrs: inlinehint nounwind uwtable
define internal ptr @Vec_IntEntryP(ptr noundef %0, i32 noundef %1) #2 {
  %3 = alloca ptr, align 8
  %4 = alloca i32, align 4
  store ptr %0, ptr %3, align 8, !tbaa !26
  store i32 %1, ptr %4, align 4, !tbaa !17
  %5 = load ptr, ptr %3, align 8, !tbaa !26
  %6 = getelementptr inbounds nuw %struct.Vec_Int_t_, ptr %5, i32 0, i32 2
  %7 = load ptr, ptr %6, align 8, !tbaa !46
  %8 = load i32, ptr %4, align 4, !tbaa !17
  %9 = sext i32 %8 to i64
  %10 = getelementptr inbounds i32, ptr %7, i64 %9
  ret ptr %10
}

; Function Attrs: inlinehint nounwind uwtable
define internal ptr @Nf_ManObj(ptr noundef %0, i32 noundef %1) #2 {
  %3 = alloca ptr, align 8
  %4 = alloca i32, align 4
  store ptr %0, ptr %3, align 8, !tbaa !61
  store i32 %1, ptr %4, align 4, !tbaa !17
  %5 = load ptr, ptr %3, align 8, !tbaa !61
  %6 = getelementptr inbounds nuw %struct.Nf_Man_t_, ptr %5, i32 0, i32 7
  %7 = load ptr, ptr %6, align 8, !tbaa !104
  %8 = load i32, ptr %4, align 4, !tbaa !17
  %9 = sext i32 %8 to i64
  %10 = getelementptr inbounds %struct.Nf_Obj_t_, ptr %7, i64 %9
  ret ptr %10
}

; Function Attrs: inlinehint nounwind uwtable
define internal i32 @Abc_Var2Lit(i32 noundef %0, i32 noundef %1) #2 {
  %3 = alloca i32, align 4
  %4 = alloca i32, align 4
  store i32 %0, ptr %3, align 4, !tbaa !17
  store i32 %1, ptr %4, align 4, !tbaa !17
  %5 = load i32, ptr %3, align 4, !tbaa !17
  %6 = load i32, ptr %3, align 4, !tbaa !17
  %7 = add nsw i32 %5, %6
  %8 = load i32, ptr %4, align 4, !tbaa !17
  %9 = add nsw i32 %7, %8
  ret i32 %9
}

; Function Attrs: inlinehint nounwind uwtable
define internal i32 @Gia_ObjFaninId0(ptr noundef %0, i32 noundef %1) #2 {
  %3 = alloca ptr, align 8
  %4 = alloca i32, align 4
  store ptr %0, ptr %3, align 8, !tbaa !137
  store i32 %1, ptr %4, align 4, !tbaa !17
  %5 = load i32, ptr %4, align 4, !tbaa !17
  %6 = load ptr, ptr %3, align 8, !tbaa !137
  %7 = load i64, ptr %6, align 4
  %8 = and i64 %7, 536870911
  %9 = trunc i64 %8 to i32
  %10 = sub nsw i32 %5, %9
  ret i32 %10
}

; Function Attrs: inlinehint nounwind uwtable
define internal i32 @Gia_ObjId(ptr noundef %0, ptr noundef %1) #2 {
  %3 = alloca ptr, align 8
  %4 = alloca ptr, align 8
  store ptr %0, ptr %3, align 8, !tbaa !84
  store ptr %1, ptr %4, align 8, !tbaa !137
  %5 = load ptr, ptr %4, align 8, !tbaa !137
  %6 = load ptr, ptr %3, align 8, !tbaa !84
  %7 = getelementptr inbounds nuw %struct.Gia_Man_t_, ptr %6, i32 0, i32 6
  %8 = load ptr, ptr %7, align 8, !tbaa !157
  %9 = ptrtoint ptr %5 to i64
  %10 = ptrtoint ptr %8 to i64
  %11 = sub i64 %9, %10
  %12 = sdiv exact i64 %11, 12
  %13 = trunc i64 %12 to i32
  ret i32 %13
}

; Function Attrs: inlinehint nounwind uwtable
define internal i32 @Vec_IntEntry(ptr noundef %0, i32 noundef %1) #2 {
  %3 = alloca ptr, align 8
  %4 = alloca i32, align 4
  store ptr %0, ptr %3, align 8, !tbaa !26
  store i32 %1, ptr %4, align 4, !tbaa !17
  %5 = load ptr, ptr %3, align 8, !tbaa !26
  %6 = getelementptr inbounds nuw %struct.Vec_Int_t_, ptr %5, i32 0, i32 2
  %7 = load ptr, ptr %6, align 8, !tbaa !46
  %8 = load i32, ptr %4, align 4, !tbaa !17
  %9 = sext i32 %8 to i64
  %10 = getelementptr inbounds i32, ptr %7, i64 %9
  %11 = load i32, ptr %10, align 4, !tbaa !17
  ret i32 %11
}

; Function Attrs: inlinehint nounwind uwtable
define internal i32 @Nf_ObjMapRefInc(ptr noundef %0, i32 noundef %1, i32 noundef %2) #2 {
  %4 = alloca ptr, align 8
  %5 = alloca i32, align 4
  %6 = alloca i32, align 4
  store ptr %0, ptr %4, align 8, !tbaa !61
  store i32 %1, ptr %5, align 4, !tbaa !17
  store i32 %2, ptr %6, align 4, !tbaa !17
  %7 = load ptr, ptr %4, align 8, !tbaa !61
  %8 = getelementptr inbounds nuw %struct.Nf_Man_t_, ptr %7, i32 0, i32 10
  %9 = load i32, ptr %5, align 4, !tbaa !17
  %10 = load i32, ptr %6, align 4, !tbaa !17
  %11 = call i32 @Abc_Var2Lit(i32 noundef %9, i32 noundef %10)
  %12 = call ptr @Vec_IntEntryP(ptr noundef %8, i32 noundef %11)
  %13 = load i32, ptr %12, align 4, !tbaa !17
  %14 = add nsw i32 %13, 1
  store i32 %14, ptr %12, align 4, !tbaa !17
  ret i32 %13
}

; Function Attrs: inlinehint nounwind uwtable
define internal ptr @Nf_ObjMatchD(ptr noundef %0, i32 noundef %1, i32 noundef %2) #2 {
  %4 = alloca ptr, align 8
  %5 = alloca i32, align 4
  %6 = alloca i32, align 4
  store ptr %0, ptr %4, align 8, !tbaa !61
  store i32 %1, ptr %5, align 4, !tbaa !17
  store i32 %2, ptr %6, align 4, !tbaa !17
  %7 = load ptr, ptr %4, align 8, !tbaa !61
  %8 = load i32, ptr %5, align 4, !tbaa !17
  %9 = call ptr @Nf_ManObj(ptr noundef %7, i32 noundef %8)
  %10 = getelementptr inbounds nuw %struct.Nf_Obj_t_, ptr %9, i32 0, i32 0
  %11 = load i32, ptr %6, align 4, !tbaa !17
  %12 = sext i32 %11 to i64
  %13 = getelementptr inbounds [2 x [2 x %struct.Nf_Mat_t_]], ptr %10, i64 0, i64 %12
  %14 = getelementptr inbounds [2 x %struct.Nf_Mat_t_], ptr %13, i64 0, i64 0
  ret ptr %14
}

; Function Attrs: inlinehint nounwind uwtable
define internal i32 @Gia_ObjFaninC0(ptr noundef %0) #2 {
  %2 = alloca ptr, align 8
  store ptr %0, ptr %2, align 8, !tbaa !137
  %3 = load ptr, ptr %2, align 8, !tbaa !137
  %4 = load i64, ptr %3, align 4
  %5 = lshr i64 %4, 29
  %6 = and i64 %5, 1
  %7 = trunc i64 %6 to i32
  ret i32 %7
}

; Function Attrs: inlinehint nounwind uwtable
define internal i32 @Nf_ObjMapRefNum(ptr noundef %0, i32 noundef %1, i32 noundef %2) #2 {
  %4 = alloca ptr, align 8
  %5 = alloca i32, align 4
  %6 = alloca i32, align 4
  store ptr %0, ptr %4, align 8, !tbaa !61
  store i32 %1, ptr %5, align 4, !tbaa !17
  store i32 %2, ptr %6, align 4, !tbaa !17
  %7 = load ptr, ptr %4, align 8, !tbaa !61
  %8 = getelementptr inbounds nuw %struct.Nf_Man_t_, ptr %7, i32 0, i32 10
  %9 = load i32, ptr %5, align 4, !tbaa !17
  %10 = load i32, ptr %6, align 4, !tbaa !17
  %11 = call i32 @Abc_Var2Lit(i32 noundef %9, i32 noundef %10)
  %12 = call i32 @Vec_IntEntry(ptr noundef %8, i32 noundef %11)
  ret i32 %12
}

; Function Attrs: inlinehint nounwind uwtable
define internal i32 @Gia_ObjIsAnd(ptr noundef %0) #2 {
  %2 = alloca ptr, align 8
  store ptr %0, ptr %2, align 8, !tbaa !137
  %3 = load ptr, ptr %2, align 8, !tbaa !137
  %4 = load i64, ptr %3, align 4
  %5 = lshr i64 %4, 31
  %6 = and i64 %5, 1
  %7 = trunc i64 %6 to i32
  %8 = icmp ne i32 %7, 0
  br i1 %8, label %15, label %9

9:                                                ; preds = %1
  %10 = load ptr, ptr %2, align 8, !tbaa !137
  %11 = load i64, ptr %10, align 4
  %12 = and i64 %11, 536870911
  %13 = trunc i64 %12 to i32
  %14 = icmp ne i32 %13, 536870911
  br label %15

15:                                               ; preds = %9, %1
  %16 = phi i1 [ false, %1 ], [ %14, %9 ]
  %17 = zext i1 %16 to i32
  ret i32 %17
}

; Function Attrs: inlinehint nounwind uwtable
define internal ptr @Gia_ManObj(ptr noundef %0, i32 noundef %1) #2 {
  %3 = alloca ptr, align 8
  %4 = alloca i32, align 4
  store ptr %0, ptr %3, align 8, !tbaa !84
  store i32 %1, ptr %4, align 4, !tbaa !17
  %5 = load ptr, ptr %3, align 8, !tbaa !84
  %6 = getelementptr inbounds nuw %struct.Gia_Man_t_, ptr %5, i32 0, i32 6
  %7 = load ptr, ptr %6, align 8, !tbaa !157
  %8 = load i32, ptr %4, align 4, !tbaa !17
  %9 = sext i32 %8 to i64
  %10 = getelementptr inbounds %struct.Gia_Obj_t_, ptr %7, i64 %9
  ret ptr %10
}

; Function Attrs: inlinehint nounwind uwtable
define internal i32 @Gia_ObjFaninId0p(ptr noundef %0, ptr noundef %1) #2 {
  %3 = alloca ptr, align 8
  %4 = alloca ptr, align 8
  store ptr %0, ptr %3, align 8, !tbaa !84
  store ptr %1, ptr %4, align 8, !tbaa !137
  %5 = load ptr, ptr %4, align 8, !tbaa !137
  %6 = load ptr, ptr %3, align 8, !tbaa !84
  %7 = load ptr, ptr %4, align 8, !tbaa !137
  %8 = call i32 @Gia_ObjId(ptr noundef %6, ptr noundef %7)
  %9 = call i32 @Gia_ObjFaninId0(ptr noundef %5, i32 noundef %8)
  ret i32 %9
}

; Function Attrs: inlinehint nounwind uwtable
define internal ptr @Gia_ManCo(ptr noundef %0, i32 noundef %1) #2 {
  %3 = alloca ptr, align 8
  %4 = alloca i32, align 4
  store ptr %0, ptr %3, align 8, !tbaa !84
  store i32 %1, ptr %4, align 4, !tbaa !17
  %5 = load ptr, ptr %3, align 8, !tbaa !84
  %6 = load ptr, ptr %3, align 8, !tbaa !84
  %7 = getelementptr inbounds nuw %struct.Gia_Man_t_, ptr %6, i32 0, i32 12
  %8 = load ptr, ptr %7, align 8, !tbaa !188
  %9 = load i32, ptr %4, align 4, !tbaa !17
  %10 = call i32 @Vec_IntEntry(ptr noundef %8, i32 noundef %9)
  %11 = call ptr @Gia_ManObj(ptr noundef %5, i32 noundef %10)
  ret ptr %11
}

; Function Attrs: inlinehint nounwind uwtable
define internal i32 @Vec_IntSize(ptr noundef %0) #2 {
  %2 = alloca ptr, align 8
  store ptr %0, ptr %2, align 8, !tbaa !26
  %3 = load ptr, ptr %2, align 8, !tbaa !26
  %4 = getelementptr inbounds nuw %struct.Vec_Int_t_, ptr %3, i32 0, i32 1
  %5 = load i32, ptr %4, align 4, !tbaa !44
  ret i32 %5
}

; Function Attrs: nounwind uwtable
define void @Nf_ManFixPoDrivers(ptr noundef %0) #0 {
  %2 = alloca ptr, align 8
  %3 = alloca ptr, align 8
  %4 = alloca ptr, align 8
  %5 = alloca ptr, align 8
  %6 = alloca i32, align 4
  %7 = alloca i32, align 4
  %8 = alloca i32, align 4
  store ptr %0, ptr %2, align 8, !tbaa !61
  call void @llvm.lifetime.start.p0(i64 8, ptr %3) #13
  call void @llvm.lifetime.start.p0(i64 8, ptr %4) #13
  call void @llvm.lifetime.start.p0(i64 8, ptr %5) #13
  call void @llvm.lifetime.start.p0(i64 4, ptr %6) #13
  call void @llvm.lifetime.start.p0(i64 4, ptr %7) #13
  call void @llvm.lifetime.start.p0(i64 4, ptr %8) #13
  store i32 0, ptr %8, align 4, !tbaa !17
  store i32 0, ptr %6, align 4, !tbaa !17
  br label %9

9:                                                ; preds = %131, %1
  %10 = load i32, ptr %6, align 4, !tbaa !17
  %11 = load ptr, ptr %2, align 8, !tbaa !61
  %12 = getelementptr inbounds nuw %struct.Nf_Man_t_, ptr %11, i32 0, i32 0
  %13 = load ptr, ptr %12, align 8, !tbaa !100
  %14 = getelementptr inbounds nuw %struct.Gia_Man_t_, ptr %13, i32 0, i32 12
  %15 = load ptr, ptr %14, align 8, !tbaa !188
  %16 = call i32 @Vec_IntSize(ptr noundef %15)
  %17 = icmp slt i32 %10, %16
  br i1 %17, label %18, label %25

18:                                               ; preds = %9
  %19 = load ptr, ptr %2, align 8, !tbaa !61
  %20 = getelementptr inbounds nuw %struct.Nf_Man_t_, ptr %19, i32 0, i32 0
  %21 = load ptr, ptr %20, align 8, !tbaa !100
  %22 = load i32, ptr %6, align 4, !tbaa !17
  %23 = call ptr @Gia_ManCo(ptr noundef %21, i32 noundef %22)
  store ptr %23, ptr %3, align 8, !tbaa !137
  %24 = icmp ne ptr %23, null
  br label %25

25:                                               ; preds = %18, %9
  %26 = phi i1 [ false, %9 ], [ %24, %18 ]
  br i1 %26, label %27, label %134

27:                                               ; preds = %25
  %28 = load ptr, ptr %2, align 8, !tbaa !61
  %29 = getelementptr inbounds nuw %struct.Nf_Man_t_, ptr %28, i32 0, i32 0
  %30 = load ptr, ptr %29, align 8, !tbaa !100
  %31 = load ptr, ptr %3, align 8, !tbaa !137
  %32 = call i32 @Gia_ObjFaninId0p(ptr noundef %30, ptr noundef %31)
  store i32 %32, ptr %7, align 4, !tbaa !17
  %33 = load ptr, ptr %2, align 8, !tbaa !61
  %34 = getelementptr inbounds nuw %struct.Nf_Man_t_, ptr %33, i32 0, i32 0
  %35 = load ptr, ptr %34, align 8, !tbaa !100
  %36 = load i32, ptr %7, align 4, !tbaa !17
  %37 = call ptr @Gia_ManObj(ptr noundef %35, i32 noundef %36)
  %38 = call i32 @Gia_ObjIsAnd(ptr noundef %37)
  %39 = icmp ne i32 %38, 0
  br i1 %39, label %41, label %40

40:                                               ; preds = %27
  br label %131

41:                                               ; preds = %27
  %42 = load ptr, ptr %2, align 8, !tbaa !61
  %43 = load i32, ptr %7, align 4, !tbaa !17
  %44 = call i32 @Nf_ObjMapRefNum(ptr noundef %42, i32 noundef %43, i32 noundef 0)
  %45 = icmp ne i32 %44, 0
  br i1 %45, label %46, label %51

46:                                               ; preds = %41
  %47 = load ptr, ptr %2, align 8, !tbaa !61
  %48 = load i32, ptr %7, align 4, !tbaa !17
  %49 = call i32 @Nf_ObjMapRefNum(ptr noundef %47, i32 noundef %48, i32 noundef 1)
  %50 = icmp ne i32 %49, 0
  br i1 %50, label %52, label %51

51:                                               ; preds = %46, %41
  br label %131

52:                                               ; preds = %46
  %53 = load ptr, ptr %2, align 8, !tbaa !61
  %54 = load i32, ptr %7, align 4, !tbaa !17
  %55 = load ptr, ptr %3, align 8, !tbaa !137
  %56 = call i32 @Gia_ObjFaninC0(ptr noundef %55)
  %57 = call ptr @Nf_ObjMatchD(ptr noundef %53, i32 noundef %54, i32 noundef %56)
  store ptr %57, ptr %4, align 8, !tbaa !193
  %58 = load ptr, ptr %2, align 8, !tbaa !61
  %59 = load i32, ptr %7, align 4, !tbaa !17
  %60 = load ptr, ptr %3, align 8, !tbaa !137
  %61 = call i32 @Gia_ObjFaninC0(ptr noundef %60)
  %62 = icmp ne i32 %61, 0
  %63 = xor i1 %62, true
  %64 = zext i1 %63 to i32
  %65 = call ptr @Nf_ObjMatchD(ptr noundef %58, i32 noundef %59, i32 noundef %64)
  store ptr %65, ptr %5, align 8, !tbaa !193
  %66 = load ptr, ptr %4, align 8, !tbaa !193
  %67 = load i32, ptr %66, align 4
  %68 = lshr i32 %67, 30
  %69 = and i32 %68, 1
  %70 = icmp ne i32 %69, 0
  br i1 %70, label %77, label %71

71:                                               ; preds = %52
  %72 = load ptr, ptr %5, align 8, !tbaa !193
  %73 = load i32, ptr %72, align 4
  %74 = lshr i32 %73, 30
  %75 = and i32 %74, 1
  %76 = icmp ne i32 %75, 0
  br i1 %76, label %77, label %78

77:                                               ; preds = %71, %52
  br label %131

78:                                               ; preds = %71
  %79 = load ptr, ptr %5, align 8, !tbaa !193
  %80 = getelementptr inbounds nuw %struct.Nf_Mat_t_, ptr %79, i32 0, i32 2
  %81 = load i32, ptr %80, align 4, !tbaa !195
  %82 = load ptr, ptr %2, align 8, !tbaa !61
  %83 = getelementptr inbounds nuw %struct.Nf_Man_t_, ptr %82, i32 0, i32 20
  %84 = load i32, ptr %83, align 8, !tbaa !111
  %85 = add nsw i32 %81, %84
  %86 = load ptr, ptr %2, align 8, !tbaa !61
  %87 = getelementptr inbounds nuw %struct.Nf_Man_t_, ptr %86, i32 0, i32 2
  %88 = load ptr, ptr %87, align 8, !tbaa !103
  %89 = getelementptr inbounds nuw %struct.Jf_Par_t_, ptr %88, i32 0, i32 48
  %90 = load i32, ptr %89, align 8, !tbaa !177
  %91 = icmp sgt i32 %85, %90
  br i1 %91, label %92, label %93

92:                                               ; preds = %78
  br label %131

93:                                               ; preds = %78
  %94 = load ptr, ptr %2, align 8, !tbaa !61
  %95 = load i32, ptr %7, align 4, !tbaa !17
  %96 = load ptr, ptr %3, align 8, !tbaa !137
  %97 = call i32 @Gia_ObjFaninC0(ptr noundef %96)
  %98 = load ptr, ptr %4, align 8, !tbaa !193
  %99 = call i64 @Nf_MatchDeref_rec(ptr noundef %94, i32 noundef %95, i32 noundef %97, ptr noundef %98)
  %100 = load ptr, ptr %2, align 8, !tbaa !61
  %101 = load i32, ptr %7, align 4, !tbaa !17
  %102 = load ptr, ptr %3, align 8, !tbaa !137
  %103 = call i32 @Gia_ObjFaninC0(ptr noundef %102)
  %104 = icmp ne i32 %103, 0
  %105 = xor i1 %104, true
  %106 = zext i1 %105 to i32
  %107 = call i32 @Nf_ObjMapRefInc(ptr noundef %100, i32 noundef %101, i32 noundef %106)
  %108 = load ptr, ptr %4, align 8, !tbaa !193
  %109 = load ptr, ptr %5, align 8, !tbaa !193
  call void @llvm.memcpy.p0.p0.i64(ptr align 4 %108, ptr align 4 %109, i64 16, i1 false), !tbaa.struct !212
  %110 = load ptr, ptr %2, align 8, !tbaa !61
  %111 = getelementptr inbounds nuw %struct.Nf_Man_t_, ptr %110, i32 0, i32 20
  %112 = load i32, ptr %111, align 8, !tbaa !111
  %113 = load ptr, ptr %4, align 8, !tbaa !193
  %114 = getelementptr inbounds nuw %struct.Nf_Mat_t_, ptr %113, i32 0, i32 2
  %115 = load i32, ptr %114, align 4, !tbaa !195
  %116 = add nsw i32 %115, %112
  store i32 %116, ptr %114, align 4, !tbaa !195
  %117 = load ptr, ptr %4, align 8, !tbaa !193
  %118 = load i32, ptr %117, align 4
  %119 = and i32 %118, -1073741825
  %120 = or i32 %119, 1073741824
  store i32 %120, ptr %117, align 4
  %121 = load ptr, ptr %4, align 8, !tbaa !193
  %122 = load i32, ptr %121, align 4
  %123 = and i32 %122, 2147483647
  %124 = or i32 %123, -2147483648
  store i32 %124, ptr %121, align 4
  %125 = load ptr, ptr %5, align 8, !tbaa !193
  %126 = load i32, ptr %125, align 4
  %127 = and i32 %126, 2147483647
  %128 = or i32 %127, -2147483648
  store i32 %128, ptr %125, align 4
  %129 = load i32, ptr %8, align 4, !tbaa !17
  %130 = add nsw i32 %129, 1
  store i32 %130, ptr %8, align 4, !tbaa !17
  br label %131

131:                                              ; preds = %93, %92, %77, %51, %40
  %132 = load i32, ptr %6, align 4, !tbaa !17
  %133 = add nsw i32 %132, 1
  store i32 %133, ptr %6, align 4, !tbaa !17
  br label %9, !llvm.loop !249

134:                                              ; preds = %25
  call void @llvm.lifetime.end.p0(i64 4, ptr %8) #13
  call void @llvm.lifetime.end.p0(i64 4, ptr %7) #13
  call void @llvm.lifetime.end.p0(i64 4, ptr %6) #13
  call void @llvm.lifetime.end.p0(i64 8, ptr %5) #13
  call void @llvm.lifetime.end.p0(i64 8, ptr %4) #13
  call void @llvm.lifetime.end.p0(i64 8, ptr %3) #13
  ret void
}