; Function Attrs: nofree nosync nounwind memory(readwrite, inaccessiblemem: none) uwtable
define void @Nf_ManFixPoDrivers(ptr noundef %0) local_unnamed_addr #14 {
  %2 = load ptr, ptr %0, align 8, !tbaa !100
  %3 = getelementptr inbounds nuw i8, ptr %2, i64 72
  %4 = load ptr, ptr %3, align 8, !tbaa !190
  %5 = getelementptr i8, ptr %4, i64 4
  %.val62 = load i32, ptr %5, align 4, !tbaa !22
  %6 = icmp sgt i32 %.val62, 0
  br i1 %6, label %.lr.ph, label %.critedge

.lr.ph:                                           ; preds = %1
  %7 = getelementptr i8, ptr %0, i64 104
  %8 = getelementptr i8, ptr %0, i64 56
  %9 = getelementptr inbounds nuw i8, ptr %0, i64 208
  %10 = getelementptr inbounds nuw i8, ptr %0, i64 16
  br label %11

11:                                               ; preds = %.lr.ph, %81
  %12 = phi ptr [ %2, %.lr.ph ], [ %82, %81 ]
  %indvars.iv = phi i64 [ 0, %.lr.ph ], [ %indvars.iv.next, %81 ]
  %13 = phi ptr [ %4, %.lr.ph ], [ %84, %81 ]
  %14 = getelementptr i8, ptr %12, i64 32
  %.val55 = load ptr, ptr %14, align 8, !tbaa !134
  %15 = getelementptr i8, ptr %13, i64 8
  %.val56.val = load ptr, ptr %15, align 8, !tbaa !25
  %16 = getelementptr inbounds nuw i32, ptr %.val56.val, i64 %indvars.iv
  %17 = load i32, ptr %16, align 4, !tbaa !13
  %18 = sext i32 %17 to i64
  %19 = getelementptr inbounds %struct.Gia_Obj_t_, ptr %.val55, i64 %18
  %.not = icmp eq ptr %.val55, null
  br i1 %.not, label %.critedge, label %20

20:                                               ; preds = %11
  %.val.i = load i64, ptr %19, align 4
  %21 = trunc i64 %.val.i to i32
  %22 = and i32 %21, 536870911
  %23 = sub nsw i32 %17, %22
  %24 = sext i32 %23 to i64
  %25 = getelementptr inbounds %struct.Gia_Obj_t_, ptr %.val55, i64 %24
  %.val54 = load i64, ptr %25, align 4
  %26 = and i64 %.val54, 2147483648
  %.not.i = icmp ne i64 %26, 0
  %27 = and i64 %.val54, 536870911
  %28 = icmp eq i64 %27, 536870911
  %narrow.i.not = or i1 %.not.i, %28
  br i1 %narrow.i.not, label %81, label %29

29:                                               ; preds = %20
  %.val60 = load ptr, ptr %7, align 8, !tbaa !25
  %30 = shl nsw i32 %23, 1
  %31 = sext i32 %30 to i64
  %32 = getelementptr inbounds i32, ptr %.val60, i64 %31
  %33 = load i32, ptr %32, align 4, !tbaa !13
  %.not41 = icmp eq i32 %33, 0
  br i1 %.not41, label %81, label %34

34:                                               ; preds = %29
  %35 = or disjoint i32 %30, 1
  %36 = sext i32 %35 to i64
  %37 = getelementptr inbounds i32, ptr %.val60, i64 %36
  %38 = load i32, ptr %37, align 4, !tbaa !13
  %.not42 = icmp eq i32 %38, 0
  br i1 %.not42, label %81, label %39

39:                                               ; preds = %34
  %40 = lshr i32 %21, 29
  %41 = and i32 %40, 1
  %.val48 = load ptr, ptr %8, align 8, !tbaa !105
  %42 = getelementptr inbounds %struct.Nf_Obj_t_, ptr %.val48, i64 %24
  %43 = zext nneg i32 %41 to i64
  %44 = getelementptr inbounds nuw [2 x [2 x %struct.Nf_Mat_t_]], ptr %42, i64 0, i64 %43
  %45 = xor i32 %41, 1
  %46 = zext nneg i32 %45 to i64
  %47 = getelementptr inbounds nuw [2 x [2 x %struct.Nf_Mat_t_]], ptr %42, i64 0, i64 %46
  %48 = load i32, ptr %44, align 4
  %49 = and i32 %48, 1073741824
  %.not44 = icmp eq i32 %49, 0
  br i1 %.not44, label %50, label %81

50:                                               ; preds = %39
  %51 = load i32, ptr %47, align 4
  %52 = and i32 %51, 1073741824
  %.not45 = icmp eq i32 %52, 0
  br i1 %.not45, label %53, label %81

53:                                               ; preds = %50
  %54 = getelementptr inbounds nuw i8, ptr %47, i64 8
  %55 = load i32, ptr %54, align 4, !tbaa !192
  %56 = load i32, ptr %9, align 8, !tbaa !119
  %57 = add nsw i32 %56, %55
  %58 = load ptr, ptr %10, align 8, !tbaa !103
  %59 = getelementptr inbounds nuw i8, ptr %58, i64 224
  %60 = load i32, ptr %59, align 8, !tbaa !179
  %61 = icmp sgt i32 %57, %60
  br i1 %61, label %81, label %62

62:                                               ; preds = %53
  %63 = tail call i64 @Nf_MatchDeref_rec(ptr noundef nonnull %0, i32 noundef %23, i32 noundef %41, ptr noundef nonnull %44)
  %.val50 = load i64, ptr %19, align 4
  %64 = trunc i64 %.val50 to i32
  %65 = lshr i32 %64, 29
  %66 = and i32 %65, 1
  %.val58 = load ptr, ptr %7, align 8, !tbaa !25
  %67 = or disjoint i32 %66, %30
  %68 = xor i32 %67, 1
  %69 = sext i32 %68 to i64
  %70 = getelementptr inbounds i32, ptr %.val58, i64 %69
  %71 = load i32, ptr %70, align 4, !tbaa !13
  %72 = add nsw i32 %71, 1
  store i32 %72, ptr %70, align 4, !tbaa !13
  tail call void @llvm.memcpy.p0.p0.i64(ptr noundef nonnull align 4 dereferenceable(16) %44, ptr noundef nonnull align 4 dereferenceable(16) %47, i64 16, i1 false), !tbaa.struct !212
  %73 = load i32, ptr %9, align 8, !tbaa !119
  %74 = getelementptr inbounds nuw i8, ptr %44, i64 8
  %75 = load i32, ptr %74, align 4, !tbaa !192
  %76 = add nsw i32 %75, %73
  store i32 %76, ptr %74, align 4, !tbaa !192
  %77 = load i32, ptr %44, align 4
  %78 = or i32 %77, -1073741824
  store i32 %78, ptr %44, align 4
  %79 = load i32, ptr %47, align 4
  %80 = or i32 %79, -2147483648
  store i32 %80, ptr %47, align 4
  %.pre = load ptr, ptr %0, align 8, !tbaa !100
  br label %81

81:                                               ; preds = %53, %39, %50, %29, %34, %20, %62
  %82 = phi ptr [ %12, %39 ], [ %12, %50 ], [ %12, %53 ], [ %.pre, %62 ], [ %12, %34 ], [ %12, %29 ], [ %12, %20 ]
  %indvars.iv.next = add nuw nsw i64 %indvars.iv, 1
  %83 = getelementptr inbounds nuw i8, ptr %82, i64 72
  %84 = load ptr, ptr %83, align 8, !tbaa !190
  %85 = getelementptr i8, ptr %84, i64 4
  %.val = load i32, ptr %85, align 4, !tbaa !22
  %86 = sext i32 %.val to i64
  %87 = icmp slt i64 %indvars.iv.next, %86
  br i1 %87, label %11, label %.critedge, !llvm.loop !249

.critedge:                                        ; preds = %11, %81, %1
  ret void
}